target datalayout = "e-m:e-p270:32:32-p271:32:32-p272:64:64-i64:64-i128:128-f80:128-n8:16:32:64-S128"
target triple = "x86_64-pc-linux-gnu"

@.str.2 = private unnamed_addr constant [2 x i8] c",\00", align 1
@.str.455 = private unnamed_addr constant [4 x i8] c"%s:\00", align 1
@.str.456 = private unnamed_addr constant [4 x i8] c",%s\00", align 1

; Function Attrs: nounwind uwtable
define dso_local void @slurm_format_tres_string(ptr noundef %0, ptr noundef %1) #0 {
  %3 = alloca ptr, align 8
  %4 = alloca ptr, align 8
  %5 = alloca ptr, align 8
  %6 = alloca ptr, align 8
  %7 = alloca ptr, align 8
  %8 = alloca ptr, align 8
  %9 = alloca ptr, align 8
  %10 = alloca i64, align 8
  %11 = alloca i32, align 4
  %12 = alloca i32, align 4
  store ptr %0, ptr %3, align 8
  store ptr %1, ptr %4, align 8
  call void @llvm.lifetime.start.p0(i64 8, ptr %5) #11
  call void @llvm.lifetime.start.p0(i64 8, ptr %6) #11
  store ptr null, ptr %6, align 8
  call void @llvm.lifetime.start.p0(i64 8, ptr %7) #11
  store ptr null, ptr %7, align 8
  call void @llvm.lifetime.start.p0(i64 8, ptr %8) #11
  store ptr null, ptr %8, align 8
  call void @llvm.lifetime.start.p0(i64 8, ptr %9) #11
  store ptr null, ptr %9, align 8
  call void @llvm.lifetime.start.p0(i64 8, ptr %10) #11
  call void @llvm.lifetime.start.p0(i64 4, ptr %11) #11
  %13 = load ptr, ptr %3, align 8
  %14 = load ptr, ptr %13, align 8
  %15 = icmp ne ptr %14, null
  br i1 %15, label %17, label %16

16:                                               ; preds = %2
  store i32 1, ptr %12, align 4
  br label %63

17:                                               ; preds = %2
  %18 = load ptr, ptr %4, align 8
  %19 = call ptr (ptr, ...) @xstrdup_printf(ptr noundef @.str.455, ptr noundef %18)
  store ptr %19, ptr %9, align 8
  %20 = load ptr, ptr %3, align 8
  %21 = load ptr, ptr %20, align 8
  %22 = load ptr, ptr %9, align 8
  %23 = call ptr @xstrstr(ptr noundef %21, ptr noundef %22)
  %24 = icmp ne ptr %23, null
  br i1 %24, label %26, label %25

25:                                               ; preds = %17
  call void @slurm_xfree(ptr noundef %9)
  store i32 1, ptr %12, align 4
  br label %63

26:                                               ; preds = %17
  %27 = load ptr, ptr %9, align 8
  %28 = call i64 @strlen(ptr noundef %27) #12
  store i64 %28, ptr %10, align 8
  %29 = load i64, ptr %10, align 8
  %30 = sub i64 %29, 1
  %31 = trunc i64 %30 to i32
  store i32 %31, ptr %11, align 4
  %32 = load ptr, ptr %3, align 8
  %33 = load ptr, ptr %32, align 8
  %34 = call ptr @strtok_r(ptr noundef %33, ptr noundef @.str.2, ptr noundef %6) #11
  store ptr %34, ptr %5, align 8
  br label %35

35:                                               ; preds = %57, %26
  %36 = load ptr, ptr %5, align 8
  %37 = icmp ne ptr %36, null
  br i1 %37, label %38, label %59

38:                                               ; preds = %35
  %39 = load ptr, ptr %5, align 8
  %40 = load ptr, ptr %9, align 8
  %41 = load i64, ptr %10, align 8
  %42 = call i32 @xstrncmp(ptr noundef %39, ptr noundef %40, i64 noundef %41)
  %43 = icmp ne i32 %42, 0
  br i1 %43, label %49, label %44

44:                                               ; preds = %38
  %45 = load ptr, ptr %5, align 8
  %46 = load i32, ptr %11, align 4
  %47 = sext i32 %46 to i64
  %48 = getelementptr inbounds i8, ptr %45, i64 %47
  store i8 47, ptr %48, align 1
  br label %49

49:                                               ; preds = %44, %38
  %50 = load ptr, ptr %8, align 8
  %51 = icmp ne ptr %50, null
  br i1 %51, label %52, label %54

52:                                               ; preds = %49
  %53 = load ptr, ptr %5, align 8
  call void (ptr, ptr, ptr, ...) @_xstrfmtcatat(ptr noundef %8, ptr noundef %7, ptr noundef @.str.456, ptr noundef %53)
  br label %56

54:                                               ; preds = %49
  %55 = load ptr, ptr %5, align 8
  call void @_xstrncatat(ptr noundef %8, ptr noundef %7, ptr noundef %55, i64 noundef -1)
  br label %56

56:                                               ; preds = %54, %52
  br label %57

57:                                               ; preds = %56
  %58 = call ptr @strtok_r(ptr noundef null, ptr noundef @.str.2, ptr noundef %6) #11
  store ptr %58, ptr %5, align 8
  br label %35, !llvm.loop !79

59:                                               ; preds = %35
  %60 = load ptr, ptr %3, align 8
  call void @slurm_xfree(ptr noundef %60)
  %61 = load ptr, ptr %8, align 8
  %62 = load ptr, ptr %3, align 8
  store ptr %61, ptr %62, align 8
  call void @slurm_xfree(ptr noundef %9)
  store i32 0, ptr %12, align 4
  br label %63

63:                                               ; preds = %59, %25, %16
  call void @llvm.lifetime.end.p0(i64 4, ptr %11) #11
  call void @llvm.lifetime.end.p0(i64 8, ptr %10) #11
  call void @llvm.lifetime.end.p0(i64 8, ptr %9) #11
  call void @llvm.lifetime.end.p0(i64 8, ptr %8) #11
  call void @llvm.lifetime.end.p0(i64 8, ptr %7) #11
  call void @llvm.lifetime.end.p0(i64 8, ptr %6) #11
  call void @llvm.lifetime.end.p0(i64 8, ptr %5) #11
  %64 = load i32, ptr %12, align 4
  switch i32 %64, label %66 [
    i32 0, label %65
    i32 1, label %65
  ]

65:                                               ; preds = %63, %63
  ret void

66:                                               ; preds = %63
  unreachable
}