; Function Attrs: nounwind uwtable
define dso_local void @slurm_format_tres_string(ptr noundef %0, ptr noundef %1) local_unnamed_addr #1 {
  %3 = alloca ptr, align 8
  %4 = alloca ptr, align 8
  %5 = alloca ptr, align 8
  %6 = alloca ptr, align 8
  call void @llvm.lifetime.start.p0(i64 8, ptr nonnull %3) #24
  store ptr null, ptr %3, align 8
  call void @llvm.lifetime.start.p0(i64 8, ptr nonnull %4) #24
  store ptr null, ptr %4, align 8
  call void @llvm.lifetime.start.p0(i64 8, ptr nonnull %5) #24
  store ptr null, ptr %5, align 8
  call void @llvm.lifetime.start.p0(i64 8, ptr nonnull %6) #24
  %7 = load ptr, ptr %0, align 8
  %.not = icmp eq ptr %7, null
  br i1 %.not, label %30, label %8

8:                                                ; preds = %2
  %9 = tail call ptr (ptr, ...) @xstrdup_printf(ptr noundef nonnull @.str.455, ptr noundef %1) #24
  store ptr %9, ptr %6, align 8
  %10 = load ptr, ptr %0, align 8
  %11 = tail call ptr @xstrstr(ptr noundef %10, ptr noundef %9) #24
  %.not13 = icmp eq ptr %11, null
  br i1 %.not13, label %.sink.split, label %12

12:                                               ; preds = %8
  %13 = tail call i64 @strlen(ptr noundef nonnull dereferenceable(1) %9) #25
  %14 = load ptr, ptr %0, align 8
  %15 = call ptr @strtok_r(ptr noundef %14, ptr noundef nonnull @.str.2, ptr noundef nonnull %3) #24
  %.not1417 = icmp eq ptr %15, null
  br i1 %.not1417, label %._crit_edge, label %.lr.ph

.lr.ph:                                           ; preds = %12
  %16 = shl i64 %13, 32
  %sext = add i64 %16, -4294967296
  %17 = ashr exact i64 %sext, 32
  br label %18

18:                                               ; preds = %.lr.ph, %27
  %.018 = phi ptr [ %15, %.lr.ph ], [ %28, %27 ]
  %19 = load ptr, ptr %6, align 8
  %20 = call i32 @xstrncmp(ptr noundef nonnull %.018, ptr noundef %19, i64 noundef %13) #24
  %.not15 = icmp eq i32 %20, 0
  br i1 %.not15, label %21, label %23

21:                                               ; preds = %18
  %22 = getelementptr inbounds i8, ptr %.018, i64 %17
  store i8 47, ptr %22, align 1
  br label %23

23:                                               ; preds = %21, %18
  %24 = load ptr, ptr %5, align 8
  %.not16 = icmp eq ptr %24, null
  br i1 %.not16, label %26, label %25

25:                                               ; preds = %23
  call void (ptr, ptr, ptr, ...) @_xstrfmtcatat(ptr noundef nonnull %5, ptr noundef nonnull %4, ptr noundef nonnull @.str.456, ptr noundef nonnull %.018) #24
  br label %27

26:                                               ; preds = %23
  call void @_xstrncatat(ptr noundef nonnull %5, ptr noundef nonnull %4, ptr noundef nonnull %.018, i64 noundef -1) #24
  br label %27

27:                                               ; preds = %25, %26
  %28 = call ptr @strtok_r(ptr noundef null, ptr noundef nonnull @.str.2, ptr noundef nonnull %3) #24
  %.not14 = icmp eq ptr %28, null
  br i1 %.not14, label %._crit_edge, label %18, !llvm.loop !80

._crit_edge:                                      ; preds = %27, %12
  call void @slurm_xfree(ptr noundef nonnull %0) #24
  %29 = load ptr, ptr %5, align 8
  store ptr %29, ptr %0, align 8
  br label %.sink.split

.sink.split:                                      ; preds = %8, %._crit_edge
  call void @slurm_xfree(ptr noundef nonnull %6) #24
  br label %30

30:                                               ; preds = %.sink.split, %2
  call void @llvm.lifetime.end.p0(i64 8, ptr nonnull %6) #24
  call void @llvm.lifetime.end.p0(i64 8, ptr nonnull %5) #24
  call void @llvm.lifetime.end.p0(i64 8, ptr nonnull %4) #24
  call void @llvm.lifetime.end.p0(i64 8, ptr nonnull %3) #24
  ret void
}